; Function Attrs: mustprogress uwtable
define hidden void @_ZNK4cvc58internal11NodeBuilder8getChildEi(ptr noalias nocapture writeonly sret(%"class.cvc5::internal::NodeTemplate") align 8 %agg.result, ptr nocapture noundef nonnull readonly align 8 dereferenceable(116) %this, i32 noundef %i) local_unnamed_addr #3 align 2 {
entry:
  %d_nv = getelementptr inbounds i8, ptr %this, i64 96
  %0 = load ptr, ptr %d_nv, align 8
  %d_kind.i.i.i = getelementptr inbounds i8, ptr %0, i64 8
  %bf.load.i.i.i = load i16, ptr %d_kind.i.i.i, align 8
  %bf.clear.i.i.i = and i16 %bf.load.i.i.i, 1023
  %bf.cast.i.i.i = zext nneg i16 %bf.clear.i.i.i to i32
  %cmp.i.i.i.i = icmp eq i16 %bf.clear.i.i.i, 1023
  %cond.i.i.i.i = select i1 %cmp.i.i.i.i, i32 -1, i32 %bf.cast.i.i.i
  %call2.i.i = tail call noundef i32 @_ZN4cvc58internal4kind10metaKindOfENS1_6Kind_tE(i32 noundef %cond.i.i.i.i)
  %cmp.i = icmp eq i32 %call2.i.i, 2
  %inc.i = zext i1 %cmp.i to i32
  %spec.select.i = add nsw i32 %inc.i, %i
  %d_children.i = getelementptr inbounds i8, ptr %0, i64 16
  %idxprom.i = sext i32 %spec.select.i to i64
  %arrayidx.i = getelementptr inbounds [0 x ptr], ptr %d_children.i, i64 0, i64 %idxprom.i
  %1 = load ptr, ptr %arrayidx.i, align 8
  store ptr %1, ptr %agg.result, align 8
  %bf.load.i.i = load i64, ptr %1, align 8
  %bf.lshr.i.i = lshr i64 %bf.load.i.i, 40
  %2 = trunc i64 %bf.lshr.i.i to i32
  %bf.cast.i.i = and i32 %2, 1048575
  %cmp.i.i = icmp ult i32 %bf.cast.i.i, 1048574
  br i1 %cmp.i.i, label %if.then.i.i, label %if.else.i.i

if.then.i.i:                                      ; preds = %entry
  %bf.value.i.i = add i64 %bf.load.i.i, 1099511627776
  %bf.shl.i.i = and i64 %bf.value.i.i, 1152920405095219200
  %bf.clear7.i.i = and i64 %bf.load.i.i, -1152920405095219201
  %bf.set.i.i = or disjoint i64 %bf.shl.i.i, %bf.clear7.i.i
  store i64 %bf.set.i.i, ptr %1, align 8
  br label %_ZN4cvc58internal12NodeTemplateILb1EEC2EPKNS0_4expr9NodeValueE.exit

if.else.i.i:                                      ; preds = %entry
  %cmp12.i.i = icmp eq i32 %bf.cast.i.i, 1048574
  br i1 %cmp12.i.i, label %if.then13.i.i, label %_ZN4cvc58internal12NodeTemplateILb1EEC2EPKNS0_4expr9NodeValueE.exit

if.then13.i.i:                                    ; preds = %if.else.i.i
  %bf.set23.i.i = or i64 %bf.load.i.i, 1152920405095219200
  store i64 %bf.set23.i.i, ptr %1, align 8
  tail call void @_ZN4cvc58internal4expr9NodeValue20markRefCountMaxedOutEv(ptr noundef nonnull align 8 dereferenceable(16) %1)
  br label %_ZN4cvc58internal12NodeTemplateILb1EEC2EPKNS0_4expr9NodeValueE.exit

_ZN4cvc58internal12NodeTemplateILb1EEC2EPKNS0_4expr9NodeValueE.exit: ; preds = %if.then.i.i, %if.else.i.i, %if.then13.i.i
  ret void
}